target datalayout = "e-m:e-p270:32:32-p271:32:32-p272:64:64-i64:64-i128:128-f80:128-n8:16:32:64-S128"
target triple = "x86_64-pc-linux-gnu"

%"class.ncnn::Eltwise" = type { %"class.ncnn::Layer", i32, %"class.ncnn::Mat" }
%"class.ncnn::Layer" = type { ptr, i8, i8, i8, i8, i8, i8, i8, i8, i8, i8, i8, i8, i8, i8, i8, i8, i8, i8, i8, i8, i32, ptr, i32, %"class.std::__cxx11::basic_string", %"class.std::__cxx11::basic_string", %"class.std::vector", %"class.std::vector", %"class.std::vector.3", %"class.std::vector.3" }
%"class.std::__cxx11::basic_string" = type { %"struct.std::__cxx11::basic_string<char>::_Alloc_hider", i64, %union.anon }
%"struct.std::__cxx11::basic_string<char>::_Alloc_hider" = type { ptr }
%union.anon = type { i64, [8 x i8] }
%"class.std::vector" = type { %"struct.std::_Vector_base" }
%"struct.std::_Vector_base" = type { %"struct.std::_Vector_base<int, std::allocator<int>>::_Vector_impl" }
%"struct.std::_Vector_base<int, std::allocator<int>>::_Vector_impl" = type { %"struct.std::_Vector_base<int, std::allocator<int>>::_Vector_impl_data" }
%"struct.std::_Vector_base<int, std::allocator<int>>::_Vector_impl_data" = type { ptr, ptr, ptr }
%"class.std::vector.3" = type { %"struct.std::_Vector_base.4" }
%"struct.std::_Vector_base.4" = type { %"struct.std::_Vector_base<ncnn::Mat, std::allocator<ncnn::Mat>>::_Vector_impl" }
%"struct.std::_Vector_base<ncnn::Mat, std::allocator<ncnn::Mat>>::_Vector_impl" = type { %"struct.std::_Vector_base<ncnn::Mat, std::allocator<ncnn::Mat>>::_Vector_impl_data" }
%"struct.std::_Vector_base<ncnn::Mat, std::allocator<ncnn::Mat>>::_Vector_impl_data" = type { ptr, ptr, ptr }
%"class.ncnn::Mat" = type { ptr, ptr, i64, i32, ptr, i32, i32, i32, i32, i32, i64 }

; Function Attrs: mustprogress uwtable
define hidden void @_ZN4ncnn7EltwiseC2Ev(ptr noundef nonnull align 8 dereferenceable(288) %0) unnamed_addr #0 align 2 personality ptr @__gxx_personality_v0 {
  %2 = alloca ptr, align 8
  %3 = alloca ptr, align 8
  %4 = alloca ptr, align 8
  %5 = alloca i32, align 4
  store ptr %0, ptr %3, align 8
  %6 = load ptr, ptr %3, align 8
  call void @_ZN4ncnn5LayerC2Ev(ptr noundef nonnull align 8 dereferenceable(208) %6)
  store ptr getelementptr inbounds inrange(-16, 80) ({ [12 x ptr] }, ptr @_ZTVN4ncnn7EltwiseE, i32 0, i32 0, i32 2), ptr %6, align 8
  %7 = getelementptr inbounds nuw %"class.ncnn::Eltwise", ptr %6, i32 0, i32 2
  store ptr %7, ptr %2, align 8
  %8 = load ptr, ptr %2, align 8
  store ptr null, ptr %8, align 8
  %9 = getelementptr inbounds nuw %"class.ncnn::Mat", ptr %8, i32 0, i32 1
  store ptr null, ptr %9, align 8
  %10 = getelementptr inbounds nuw %"class.ncnn::Mat", ptr %8, i32 0, i32 2
  store i64 0, ptr %10, align 8
  %11 = getelementptr inbounds nuw %"class.ncnn::Mat", ptr %8, i32 0, i32 3
  store i32 0, ptr %11, align 8
  %12 = getelementptr inbounds nuw %"class.ncnn::Mat", ptr %8, i32 0, i32 4
  store ptr null, ptr %12, align 8
  %13 = getelementptr inbounds nuw %"class.ncnn::Mat", ptr %8, i32 0, i32 5
  store i32 0, ptr %13, align 8
  %14 = getelementptr inbounds nuw %"class.ncnn::Mat", ptr %8, i32 0, i32 6
  store i32 0, ptr %14, align 4
  %15 = getelementptr inbounds nuw %"class.ncnn::Mat", ptr %8, i32 0, i32 7
  store i32 0, ptr %15, align 8
  %16 = getelementptr inbounds nuw %"class.ncnn::Mat", ptr %8, i32 0, i32 8
  store i32 0, ptr %16, align 4
  %17 = getelementptr inbounds nuw %"class.ncnn::Mat", ptr %8, i32 0, i32 9
  store i32 0, ptr %17, align 8
  %18 = getelementptr inbounds nuw %"class.ncnn::Mat", ptr %8, i32 0, i32 10
  store i64 0, ptr %18, align 8
  br label %19

19:                                               ; preds = %1
  %20 = getelementptr inbounds nuw %"class.ncnn::Layer", ptr %6, i32 0, i32 1
  store i8 0, ptr %20, align 8
  %21 = getelementptr inbounds nuw %"class.ncnn::Layer", ptr %6, i32 0, i32 2
  store i8 0, ptr %21, align 1
  ret void

22:                                               ; No predecessors!
  %23 = landingpad { ptr, i32 }
          cleanup
  %24 = extractvalue { ptr, i32 } %23, 0
  store ptr %24, ptr %4, align 8
  %25 = extractvalue { ptr, i32 } %23, 1
  store i32 %25, ptr %5, align 4
  call void @_ZN4ncnn5LayerD2Ev(ptr noundef nonnull align 8 dereferenceable(208) %6) #7
  br label %26

26:                                               ; preds = %22
  %27 = load ptr, ptr %4, align 8
  %28 = load i32, ptr %5, align 4
  %29 = insertvalue { ptr, i32 } poison, ptr %27, 0
  %30 = insertvalue { ptr, i32 } %29, i32 %28, 1
  resume { ptr, i32 } %30
}